target datalayout = "e-m:e-p270:32:32-p271:32:32-p272:64:64-i64:64-i128:128-f80:128-n8:16:32:64-S128"
target triple = "x86_64-pc-linux-gnu"

%struct.Cgt_Man_t_ = type { ptr, ptr, ptr, ptr, ptr, ptr, ptr, ptr, ptr, ptr, ptr, ptr, ptr, ptr, i32, i32, i32, i32, i32, i32, i32, i32, i64, i64, i64, i64, i64, i64, i64, i64, i64 }
%struct.Vec_Vec_t_ = type { i32, i32, ptr }
%struct.Aig_Man_t_ = type { ptr, ptr, ptr, ptr, ptr, ptr, ptr, %struct.Aig_Obj_t_, i32, i32, i32, i32, i32, i32, [7 x i32], i32, ptr, i32, ptr, i32, ptr, i32, i32, i32, ptr, i32, i32, i32, i32, i32, ptr, ptr, i32, ptr, ptr, i32, ptr, ptr, i32, i32, i32, ptr, ptr, ptr, ptr, ptr, ptr, ptr, ptr, ptr, ptr, ptr, ptr, ptr, ptr, i32, ptr, ptr, ptr, ptr, i32, i64, i64, i64, ptr, ptr }
%struct.Aig_Obj_t_ = type { %union.anon, ptr, ptr, i64, i32, i32, %union.anon.0 }
%union.anon = type { ptr }
%union.anon.0 = type { ptr }
%struct.Vec_Ptr_t_ = type { i32, i32, ptr }

@.str = private unnamed_addr constant [69 x i8] c"The PI count of care (%d) and AIG (%d) differ. Careset is not used.\0A\00", align 1

; Function Attrs: inlinehint nounwind uwtable
define internal ptr @Vec_VecAlloc(i32 noundef %0) #5 {
  %2 = alloca i32, align 4
  %3 = alloca ptr, align 8
  store i32 %0, ptr %2, align 4, !tbaa !28
  call void @llvm.lifetime.start.p0(i64 8, ptr %3) #9
  %4 = call noalias ptr @malloc(i64 noundef 16) #10
  store ptr %4, ptr %3, align 8, !tbaa !29
  %5 = load i32, ptr %2, align 4, !tbaa !28
  %6 = icmp sgt i32 %5, 0
  br i1 %6, label %7, label %11

7:                                                ; preds = %1
  %8 = load i32, ptr %2, align 4, !tbaa !28
  %9 = icmp slt i32 %8, 8
  br i1 %9, label %10, label %11

10:                                               ; preds = %7
  store i32 8, ptr %2, align 4, !tbaa !28
  br label %11

11:                                               ; preds = %10, %7, %1
  %12 = load ptr, ptr %3, align 8, !tbaa !29
  %13 = getelementptr inbounds nuw %struct.Vec_Vec_t_, ptr %12, i32 0, i32 1
  store i32 0, ptr %13, align 4, !tbaa !35
  %14 = load i32, ptr %2, align 4, !tbaa !28
  %15 = load ptr, ptr %3, align 8, !tbaa !29
  %16 = getelementptr inbounds nuw %struct.Vec_Vec_t_, ptr %15, i32 0, i32 0
  store i32 %14, ptr %16, align 8, !tbaa !74
  %17 = load ptr, ptr %3, align 8, !tbaa !29
  %18 = getelementptr inbounds nuw %struct.Vec_Vec_t_, ptr %17, i32 0, i32 0
  %19 = load i32, ptr %18, align 8, !tbaa !74
  %20 = icmp ne i32 %19, 0
  br i1 %20, label %21, label %28

21:                                               ; preds = %11
  %22 = load ptr, ptr %3, align 8, !tbaa !29
  %23 = getelementptr inbounds nuw %struct.Vec_Vec_t_, ptr %22, i32 0, i32 0
  %24 = load i32, ptr %23, align 8, !tbaa !74
  %25 = sext i32 %24 to i64
  %26 = mul i64 8, %25
  %27 = call noalias ptr @malloc(i64 noundef %26) #10
  br label %29

28:                                               ; preds = %11
  br label %29

29:                                               ; preds = %28, %21
  %30 = phi ptr [ %27, %21 ], [ null, %28 ]
  %31 = load ptr, ptr %3, align 8, !tbaa !29
  %32 = getelementptr inbounds nuw %struct.Vec_Vec_t_, ptr %31, i32 0, i32 2
  store ptr %30, ptr %32, align 8, !tbaa !30
  %33 = load ptr, ptr %3, align 8, !tbaa !29
  call void @llvm.lifetime.end.p0(i64 8, ptr %3) #9
  ret ptr %33
}

; Function Attrs: inlinehint nounwind uwtable
define internal i32 @Aig_ManCiNum(ptr noundef %0) #5 {
  %2 = alloca ptr, align 8
  store ptr %0, ptr %2, align 8, !tbaa !3
  %3 = load ptr, ptr %2, align 8, !tbaa !3
  %4 = getelementptr inbounds nuw %struct.Aig_Man_t_, ptr %3, i32 0, i32 14
  %5 = getelementptr inbounds [7 x i32], ptr %4, i64 0, i64 2
  %6 = load i32, ptr %5, align 8, !tbaa !28
  ret i32 %6
}

; Function Attrs: inlinehint nounwind uwtable
define internal ptr @Vec_PtrAlloc(i32 noundef %0) #5 {
  %2 = alloca i32, align 4
  %3 = alloca ptr, align 8
  store i32 %0, ptr %2, align 4, !tbaa !28
  call void @llvm.lifetime.start.p0(i64 8, ptr %3) #9
  %4 = call noalias ptr @malloc(i64 noundef 16) #10
  store ptr %4, ptr %3, align 8, !tbaa !45
  %5 = load i32, ptr %2, align 4, !tbaa !28
  %6 = icmp sgt i32 %5, 0
  br i1 %6, label %7, label %11

7:                                                ; preds = %1
  %8 = load i32, ptr %2, align 4, !tbaa !28
  %9 = icmp slt i32 %8, 8
  br i1 %9, label %10, label %11

10:                                               ; preds = %7
  store i32 8, ptr %2, align 4, !tbaa !28
  br label %11

11:                                               ; preds = %10, %7, %1
  %12 = load ptr, ptr %3, align 8, !tbaa !45
  %13 = getelementptr inbounds nuw %struct.Vec_Ptr_t_, ptr %12, i32 0, i32 1
  store i32 0, ptr %13, align 4, !tbaa !46
  %14 = load i32, ptr %2, align 4, !tbaa !28
  %15 = load ptr, ptr %3, align 8, !tbaa !45
  %16 = getelementptr inbounds nuw %struct.Vec_Ptr_t_, ptr %15, i32 0, i32 0
  store i32 %14, ptr %16, align 8, !tbaa !48
  %17 = load ptr, ptr %3, align 8, !tbaa !45
  %18 = getelementptr inbounds nuw %struct.Vec_Ptr_t_, ptr %17, i32 0, i32 0
  %19 = load i32, ptr %18, align 8, !tbaa !48
  %20 = icmp ne i32 %19, 0
  br i1 %20, label %21, label %28

21:                                               ; preds = %11
  %22 = load ptr, ptr %3, align 8, !tbaa !45
  %23 = getelementptr inbounds nuw %struct.Vec_Ptr_t_, ptr %22, i32 0, i32 0
  %24 = load i32, ptr %23, align 8, !tbaa !48
  %25 = sext i32 %24 to i64
  %26 = mul i64 8, %25
  %27 = call noalias ptr @malloc(i64 noundef %26) #10
  br label %29

28:                                               ; preds = %11
  br label %29

29:                                               ; preds = %28, %21
  %30 = phi ptr [ %27, %21 ], [ null, %28 ]
  %31 = load ptr, ptr %3, align 8, !tbaa !45
  %32 = getelementptr inbounds nuw %struct.Vec_Ptr_t_, ptr %31, i32 0, i32 2
  store ptr %30, ptr %32, align 8, !tbaa !49
  %33 = load ptr, ptr %3, align 8, !tbaa !45
  call void @llvm.lifetime.end.p0(i64 8, ptr %3) #9
  ret ptr %33
}

; Function Attrs: inlinehint nounwind uwtable
define internal ptr @Vec_VecStart(i32 noundef %0) #5 {
  %2 = alloca i32, align 4
  %3 = alloca ptr, align 8
  %4 = alloca i32, align 4
  store i32 %0, ptr %2, align 4, !tbaa !28
  call void @llvm.lifetime.start.p0(i64 8, ptr %3) #9
  call void @llvm.lifetime.start.p0(i64 4, ptr %4) #9
  %5 = load i32, ptr %2, align 4, !tbaa !28
  %6 = call ptr @Vec_VecAlloc(i32 noundef %5)
  store ptr %6, ptr %3, align 8, !tbaa !29
  store i32 0, ptr %4, align 4, !tbaa !28
  br label %7

7:                                                ; preds = %19, %1
  %8 = load i32, ptr %4, align 4, !tbaa !28
  %9 = load i32, ptr %2, align 4, !tbaa !28
  %10 = icmp slt i32 %8, %9
  br i1 %10, label %11, label %22

11:                                               ; preds = %7
  %12 = call ptr @Vec_PtrAlloc(i32 noundef 0)
  %13 = load ptr, ptr %3, align 8, !tbaa !29
  %14 = getelementptr inbounds nuw %struct.Vec_Vec_t_, ptr %13, i32 0, i32 2
  %15 = load ptr, ptr %14, align 8, !tbaa !30
  %16 = load i32, ptr %4, align 4, !tbaa !28
  %17 = sext i32 %16 to i64
  %18 = getelementptr inbounds ptr, ptr %15, i64 %17
  store ptr %12, ptr %18, align 8, !tbaa !32
  br label %19

19:                                               ; preds = %11
  %20 = load i32, ptr %4, align 4, !tbaa !28
  %21 = add nsw i32 %20, 1
  store i32 %21, ptr %4, align 4, !tbaa !28
  br label %7, !llvm.loop !33

22:                                               ; preds = %7
  %23 = load i32, ptr %2, align 4, !tbaa !28
  %24 = load ptr, ptr %3, align 8, !tbaa !29
  %25 = getelementptr inbounds nuw %struct.Vec_Vec_t_, ptr %24, i32 0, i32 1
  store i32 %23, ptr %25, align 4, !tbaa !35
  %26 = load ptr, ptr %3, align 8, !tbaa !29
  call void @llvm.lifetime.end.p0(i64 4, ptr %4) #9
  call void @llvm.lifetime.end.p0(i64 8, ptr %3) #9
  ret ptr %26
}

; Function Attrs: inlinehint nounwind uwtable
define internal i32 @Saig_ManRegNum(ptr noundef %0) #5 {
  %2 = alloca ptr, align 8
  store ptr %0, ptr %2, align 8, !tbaa !3
  %3 = load ptr, ptr %2, align 8, !tbaa !3
  %4 = getelementptr inbounds nuw %struct.Aig_Man_t_, ptr %3, i32 0, i32 8
  %5 = load i32, ptr %4, align 8, !tbaa !36
  ret i32 %5
}

; Function Attrs: nounwind uwtable
define ptr @Cgt_ManCreate(ptr noundef %0, ptr noundef %1, ptr noundef %2) #0 {
  %4 = alloca ptr, align 8
  %5 = alloca ptr, align 8
  %6 = alloca ptr, align 8
  %7 = alloca ptr, align 8
  %8 = alloca ptr, align 8
  %9 = alloca i32, align 4
  store ptr %0, ptr %5, align 8, !tbaa !3
  store ptr %1, ptr %6, align 8, !tbaa !3
  store ptr %2, ptr %7, align 8, !tbaa !8
  call void @llvm.lifetime.start.p0(i64 8, ptr %8) #9
  %10 = load ptr, ptr %5, align 8, !tbaa !3
  call void @Aig_ManFanoutStart(ptr noundef %10)
  %11 = load ptr, ptr %5, align 8, !tbaa !3
  call void @Aig_ManSetCioIds(ptr noundef %11)
  %12 = call noalias ptr @malloc(i64 noundef 216) #10
  store ptr %12, ptr %8, align 8, !tbaa !10
  %13 = load ptr, ptr %8, align 8, !tbaa !10
  call void @llvm.memset.p0.i64(ptr align 8 %13, i8 0, i64 216, i1 false)
  %14 = load ptr, ptr %7, align 8, !tbaa !8
  %15 = load ptr, ptr %8, align 8, !tbaa !10
  %16 = getelementptr inbounds nuw %struct.Cgt_Man_t_, ptr %15, i32 0, i32 0
  store ptr %14, ptr %16, align 8, !tbaa !12
  %17 = load ptr, ptr %5, align 8, !tbaa !3
  %18 = load ptr, ptr %8, align 8, !tbaa !10
  %19 = getelementptr inbounds nuw %struct.Cgt_Man_t_, ptr %18, i32 0, i32 1
  store ptr %17, ptr %19, align 8, !tbaa !21
  %20 = load ptr, ptr %5, align 8, !tbaa !3
  %21 = call i32 @Saig_ManRegNum(ptr noundef %20)
  %22 = call ptr @Vec_VecStart(i32 noundef %21)
  %23 = load ptr, ptr %8, align 8, !tbaa !10
  %24 = getelementptr inbounds nuw %struct.Cgt_Man_t_, ptr %23, i32 0, i32 5
  store ptr %22, ptr %24, align 8, !tbaa !22
  %25 = call ptr @Vec_PtrAlloc(i32 noundef 1000)
  %26 = load ptr, ptr %8, align 8, !tbaa !10
  %27 = getelementptr inbounds nuw %struct.Cgt_Man_t_, ptr %26, i32 0, i32 8
  store ptr %25, ptr %27, align 8, !tbaa !23
  %28 = call ptr @Vec_PtrAlloc(i32 noundef 1000)
  %29 = load ptr, ptr %8, align 8, !tbaa !10
  %30 = getelementptr inbounds nuw %struct.Cgt_Man_t_, ptr %29, i32 0, i32 9
  store ptr %28, ptr %30, align 8, !tbaa !24
  %31 = load ptr, ptr %8, align 8, !tbaa !10
  %32 = getelementptr inbounds nuw %struct.Cgt_Man_t_, ptr %31, i32 0, i32 15
  store i32 16, ptr %32, align 4, !tbaa !25
  %33 = load ptr, ptr %6, align 8, !tbaa !3
  %34 = icmp eq ptr %33, null
  br i1 %34, label %35, label %37

35:                                               ; preds = %3
  %36 = load ptr, ptr %8, align 8, !tbaa !10
  store ptr %36, ptr %4, align 8
  store i32 1, ptr %9, align 4
  br label %61

37:                                               ; preds = %3
  %38 = load ptr, ptr %6, align 8, !tbaa !3
  %39 = call i32 @Aig_ManCiNum(ptr noundef %38)
  %40 = load ptr, ptr %5, align 8, !tbaa !3
  %41 = call i32 @Aig_ManCiNum(ptr noundef %40)
  %42 = icmp ne i32 %39, %41
  br i1 %42, label %43, label %50

43:                                               ; preds = %37
  %44 = load ptr, ptr %6, align 8, !tbaa !3
  %45 = call i32 @Aig_ManCiNum(ptr noundef %44)
  %46 = load ptr, ptr %5, align 8, !tbaa !3
  %47 = call i32 @Aig_ManCiNum(ptr noundef %46)
  %48 = call i32 (ptr, ...) @printf(ptr noundef @.str, i32 noundef %45, i32 noundef %47)
  %49 = load ptr, ptr %8, align 8, !tbaa !10
  store ptr %49, ptr %4, align 8
  store i32 1, ptr %9, align 4
  br label %61

50:                                               ; preds = %37
  %51 = load ptr, ptr %6, align 8, !tbaa !3
  %52 = load ptr, ptr %8, align 8, !tbaa !10
  %53 = getelementptr inbounds nuw %struct.Cgt_Man_t_, ptr %52, i32 0, i32 3
  store ptr %51, ptr %53, align 8, !tbaa !26
  %54 = load ptr, ptr %8, align 8, !tbaa !10
  %55 = getelementptr inbounds nuw %struct.Cgt_Man_t_, ptr %54, i32 0, i32 3
  %56 = load ptr, ptr %55, align 8, !tbaa !26
  %57 = call ptr @Aig_ManSupportsInverse(ptr noundef %56)
  %58 = load ptr, ptr %8, align 8, !tbaa !10
  %59 = getelementptr inbounds nuw %struct.Cgt_Man_t_, ptr %58, i32 0, i32 4
  store ptr %57, ptr %59, align 8, !tbaa !27
  %60 = load ptr, ptr %8, align 8, !tbaa !10
  store ptr %60, ptr %4, align 8
  store i32 1, ptr %9, align 4
  br label %61

61:                                               ; preds = %50, %43, %35
  call void @llvm.lifetime.end.p0(i64 8, ptr %8) #9
  %62 = load ptr, ptr %4, align 8
  ret ptr %62
}