; Function Attrs: nounwind uwtable
define noalias noundef ptr @Cgt_ManCreate(ptr noundef %0, ptr noundef %1, ptr noundef %2) local_unnamed_addr #0 {
  tail call void @Aig_ManFanoutStart(ptr noundef %0) #10
  tail call void @Aig_ManSetCioIds(ptr noundef %0) #10
  %calloc = tail call dereferenceable_or_null(216) ptr @calloc(i64 1, i64 216)
  store ptr %2, ptr %calloc, align 8, !tbaa !3
  %4 = getelementptr inbounds nuw i8, ptr %calloc, i64 8
  store ptr %0, ptr %4, align 8, !tbaa !17
  %5 = getelementptr i8, ptr %0, i64 104
  %.val = load i32, ptr %5, align 8, !tbaa !18
  %6 = tail call noalias dereferenceable_or_null(16) ptr @malloc(i64 noundef 16) #11
  %7 = add i32 %.val, -1
  %or.cond.i.i = icmp ult i32 %7, 7
  %spec.store.select.i.i = select i1 %or.cond.i.i, i32 8, i32 %.val
  store i32 %spec.store.select.i.i, ptr %6, align 8, !tbaa !27
  %.not.i.i = icmp eq i32 %spec.store.select.i.i, 0
  br i1 %.not.i.i, label %Vec_VecAlloc.exit.i, label %8

8:                                                ; preds = %3
  %9 = sext i32 %spec.store.select.i.i to i64
  %10 = shl nsw i64 %9, 3
  %11 = tail call noalias ptr @malloc(i64 noundef %10) #11
  br label %Vec_VecAlloc.exit.i

Vec_VecAlloc.exit.i:                              ; preds = %8, %3
  %12 = phi ptr [ %11, %8 ], [ null, %3 ]
  %13 = getelementptr inbounds nuw i8, ptr %6, i64 8
  store ptr %12, ptr %13, align 8, !tbaa !29
  %14 = icmp sgt i32 %.val, 0
  br i1 %14, label %.lr.ph.preheader.i, label %Vec_VecStart.exit

.lr.ph.preheader.i:                               ; preds = %Vec_VecAlloc.exit.i
  %wide.trip.count.i = zext nneg i32 %.val to i64
  br label %.lr.ph.i

.lr.ph.i:                                         ; preds = %.lr.ph.i, %.lr.ph.preheader.i
  %indvars.iv.i = phi i64 [ 0, %.lr.ph.preheader.i ], [ %indvars.iv.next.i, %.lr.ph.i ]
  %calloc.i = tail call dereferenceable_or_null(16) ptr @calloc(i64 1, i64 16)
  %15 = getelementptr inbounds nuw ptr, ptr %12, i64 %indvars.iv.i
  store ptr %calloc.i, ptr %15, align 8, !tbaa !30
  %indvars.iv.next.i = add nuw nsw i64 %indvars.iv.i, 1
  %exitcond.not.i = icmp eq i64 %indvars.iv.next.i, %wide.trip.count.i
  br i1 %exitcond.not.i, label %Vec_VecStart.exit, label %.lr.ph.i, !llvm.loop !31

Vec_VecStart.exit:                                ; preds = %.lr.ph.i, %Vec_VecAlloc.exit.i
  %16 = getelementptr inbounds nuw i8, ptr %6, i64 4
  store i32 %.val, ptr %16, align 4, !tbaa !33
  %17 = getelementptr inbounds nuw i8, ptr %calloc, i64 40
  store ptr %6, ptr %17, align 8, !tbaa !34
  %18 = tail call noalias dereferenceable_or_null(16) ptr @malloc(i64 noundef 16) #11
  %19 = getelementptr inbounds nuw i8, ptr %18, i64 4
  store i32 0, ptr %19, align 4, !tbaa !35
  store i32 1000, ptr %18, align 8, !tbaa !37
  %20 = tail call noalias dereferenceable_or_null(8000) ptr @malloc(i64 noundef 8000) #11
  %21 = getelementptr inbounds nuw i8, ptr %18, i64 8
  store ptr %20, ptr %21, align 8, !tbaa !38
  %22 = getelementptr inbounds nuw i8, ptr %calloc, i64 64
  store ptr %18, ptr %22, align 8, !tbaa !39
  %23 = tail call noalias dereferenceable_or_null(16) ptr @malloc(i64 noundef 16) #11
  %24 = getelementptr inbounds nuw i8, ptr %23, i64 4
  store i32 0, ptr %24, align 4, !tbaa !35
  store i32 1000, ptr %23, align 8, !tbaa !37
  %25 = tail call noalias dereferenceable_or_null(8000) ptr @malloc(i64 noundef 8000) #11
  %26 = getelementptr inbounds nuw i8, ptr %23, i64 8
  store ptr %25, ptr %26, align 8, !tbaa !38
  %27 = getelementptr inbounds nuw i8, ptr %calloc, i64 72
  store ptr %23, ptr %27, align 8, !tbaa !40
  %28 = getelementptr inbounds nuw i8, ptr %calloc, i64 116
  store i32 16, ptr %28, align 4, !tbaa !41
  %29 = icmp eq ptr %1, null
  br i1 %29, label %39, label %30

30:                                               ; preds = %Vec_VecStart.exit
  %31 = getelementptr i8, ptr %1, i64 136
  %.val25 = load i32, ptr %31, align 8, !tbaa !42
  %32 = getelementptr i8, ptr %0, i64 136
  %.val26 = load i32, ptr %32, align 8, !tbaa !42
  %.not = icmp eq i32 %.val25, %.val26
  br i1 %.not, label %35, label %33

33:                                               ; preds = %30
  %34 = tail call i32 (ptr, ...) @printf(ptr noundef nonnull dereferenceable(1) @.str, i32 noundef %.val25, i32 noundef %.val26)
  br label %39

35:                                               ; preds = %30
  %36 = getelementptr inbounds nuw i8, ptr %calloc, i64 24
  store ptr %1, ptr %36, align 8, !tbaa !43
  %37 = tail call ptr @Aig_ManSupportsInverse(ptr noundef nonnull %1) #10
  %38 = getelementptr inbounds nuw i8, ptr %calloc, i64 32
  store ptr %37, ptr %38, align 8, !tbaa !44
  br label %39

39:                                               ; preds = %Vec_VecStart.exit, %35, %33
  ret ptr %calloc
}